; ModuleID = '36/805.c'
source_filename = "36/805.c"
target datalayout = "e-m:e-p270:32:32-p271:32:32-p272:64:64-i64:64-f80:128-n8:16:32:64-S128"
target triple = "x86_64-pc-linux-gnu"

@.str = private unnamed_addr constant [3 x i8] c"%s\00", align 1
@.str.1 = private unnamed_addr constant [3 x i8] c"NO\00", align 1
@.str.2 = private unnamed_addr constant [4 x i8] c"YES\00", align 1

; Function Attrs: noinline nounwind uwtable
define dso_local void @main() #0 {
  %1 = alloca i32, align 4
  %2 = alloca i32, align 4
  %3 = alloca i32, align 4
  %4 = alloca i32, align 4
  %5 = alloca i32, align 4
  %6 = alloca [100 x i8], align 16
  %7 = alloca [100 x i8], align 16
  store i32 0, i32* %3, align 4
  %8 = getelementptr inbounds [100 x i8], [100 x i8]* %6, i64 0, i64 0
  %9 = call i32 (i8*, ...) @__isoc99_scanf(i8* getelementptr inbounds ([3 x i8], [3 x i8]* @.str, i64 0, i64 0), i8* %8)
  %10 = getelementptr inbounds [100 x i8], [100 x i8]* %7, i64 0, i64 0
  %11 = call i32 (i8*, ...) @__isoc99_scanf(i8* getelementptr inbounds ([3 x i8], [3 x i8]* @.str, i64 0, i64 0), i8* %10)
  %12 = getelementptr inbounds [100 x i8], [100 x i8]* %6, i64 0, i64 0
  %13 = call i64 @strlen(i8* %12) #3
  %14 = getelementptr inbounds [100 x i8], [100 x i8]* %7, i64 0, i64 0
  %15 = call i64 @strlen(i8* %14) #3
  %16 = icmp ne i64 %13, %15
  br i1 %16, label %17, label %19

17:                                               ; preds = %0
  %18 = call i32 (i8*, ...) @printf(i8* getelementptr inbounds ([3 x i8], [3 x i8]* @.str.1, i64 0, i64 0))
  br label %176

19:                                               ; preds = %0
  store i32 0, i32* %1, align 4
  br label %20

20:                                               ; preds = %76, %19
  %21 = load i32, i32* %1, align 4
  %22 = sext i32 %21 to i64
  %23 = getelementptr inbounds [100 x i8], [100 x i8]* %6, i64 0, i64 0
  %24 = call i64 @strlen(i8* %23) #3
  %25 = sub i64 %24, 1
  %26 = icmp ult i64 %22, %25
  br i1 %26, label %27, label %79

27:                                               ; preds = %20
  store i32 0, i32* %2, align 4
  br label %28

28:                                               ; preds = %72, %27
  %29 = load i32, i32* %2, align 4
  %30 = sext i32 %29 to i64
  %31 = getelementptr inbounds [100 x i8], [100 x i8]* %6, i64 0, i64 0
  %32 = call i64 @strlen(i8* %31) #3
  %33 = sub i64 %32, 1
  %34 = load i32, i32* %1, align 4
  %35 = sext i32 %34 to i64
  %36 = sub i64 %33, %35
  %37 = icmp ult i64 %30, %36
  br i1 %37, label %38, label %75

38:                                               ; preds = %28
  %39 = load i32, i32* %2, align 4
  %40 = sext i32 %39 to i64
  %41 = getelementptr inbounds [100 x i8], [100 x i8]* %6, i64 0, i64 %40
  %42 = load i8, i8* %41, align 1
  %43 = sext i8 %42 to i32
  %44 = load i32, i32* %2, align 4
  %45 = add nsw i32 %44, 1
  %46 = sext i32 %45 to i64
  %47 = getelementptr inbounds [100 x i8], [100 x i8]* %6, i64 0, i64 %46
  %48 = load i8, i8* %47, align 1
  %49 = sext i8 %48 to i32
  %50 = icmp sgt i32 %43, %49
  br i1 %50, label %51, label %71

51:                                               ; preds = %38
  %52 = load i32, i32* %2, align 4
  %53 = sext i32 %52 to i64
  %54 = getelementptr inbounds [100 x i8], [100 x i8]* %6, i64 0, i64 %53
  %55 = load i8, i8* %54, align 1
  %56 = sext i8 %55 to i32
  store i32 %56, i32* %4, align 4
  %57 = load i32, i32* %2, align 4
  %58 = add nsw i32 %57, 1
  %59 = sext i32 %58 to i64
  %60 = getelementptr inbounds [100 x i8], [100 x i8]* %6, i64 0, i64 %59
  %61 = load i8, i8* %60, align 1
  %62 = load i32, i32* %2, align 4
  %63 = sext i32 %62 to i64
  %64 = getelementptr inbounds [100 x i8], [100 x i8]* %6, i64 0, i64 %63
  store i8 %61, i8* %64, align 1
  %65 = load i32, i32* %4, align 4
  %66 = trunc i32 %65 to i8
  %67 = load i32, i32* %2, align 4
  %68 = add nsw i32 %67, 1
  %69 = sext i32 %68 to i64
  %70 = getelementptr inbounds [100 x i8], [100 x i8]* %6, i64 0, i64 %69
  store i8 %66, i8* %70, align 1
  br label %71

71:                                               ; preds = %51, %38
  br label %72

72:                                               ; preds = %71
  %73 = load i32, i32* %2, align 4
  %74 = add nsw i32 %73, 1
  store i32 %74, i32* %2, align 4
  br label %28

75:                                               ; preds = %28
  br label %76

76:                                               ; preds = %75
  %77 = load i32, i32* %1, align 4
  %78 = add nsw i32 %77, 1
  store i32 %78, i32* %1, align 4
  br label %20

79:                                               ; preds = %20
  store i32 0, i32* %1, align 4
  br label %80

80:                                               ; preds = %136, %79
  %81 = load i32, i32* %1, align 4
  %82 = sext i32 %81 to i64
  %83 = getelementptr inbounds [100 x i8], [100 x i8]* %7, i64 0, i64 0
  %84 = call i64 @strlen(i8* %83) #3
  %85 = sub i64 %84, 1
  %86 = icmp ult i64 %82, %85
  br i1 %86, label %87, label %139

87:                                               ; preds = %80
  store i32 0, i32* %2, align 4
  br label %88

88:                                               ; preds = %132, %87
  %89 = load i32, i32* %2, align 4
  %90 = sext i32 %89 to i64
  %91 = getelementptr inbounds [100 x i8], [100 x i8]* %7, i64 0, i64 0
  %92 = call i64 @strlen(i8* %91) #3
  %93 = sub i64 %92, 1
  %94 = load i32, i32* %1, align 4
  %95 = sext i32 %94 to i64
  %96 = sub i64 %93, %95
  %97 = icmp ult i64 %90, %96
  br i1 %97, label %98, label %135

98:                                               ; preds = %88
  %99 = load i32, i32* %2, align 4
  %100 = sext i32 %99 to i64
  %101 = getelementptr inbounds [100 x i8], [100 x i8]* %7, i64 0, i64 %100
  %102 = load i8, i8* %101, align 1
  %103 = sext i8 %102 to i32
  %104 = load i32, i32* %2, align 4
  %105 = add nsw i32 %104, 1
  %106 = sext i32 %105 to i64
  %107 = getelementptr inbounds [100 x i8], [100 x i8]* %7, i64 0, i64 %106
  %108 = load i8, i8* %107, align 1
  %109 = sext i8 %108 to i32
  %110 = icmp sgt i32 %103, %109
  br i1 %110, label %111, label %131

111:                                              ; preds = %98
  %112 = load i32, i32* %2, align 4
  %113 = sext i32 %112 to i64
  %114 = getelementptr inbounds [100 x i8], [100 x i8]* %7, i64 0, i64 %113
  %115 = load i8, i8* %114, align 1
  %116 = sext i8 %115 to i32
  store i32 %116, i32* %5, align 4
  %117 = load i32, i32* %2, align 4
  %118 = add nsw i32 %117, 1
  %119 = sext i32 %118 to i64
  %120 = getelementptr inbounds [100 x i8], [100 x i8]* %7, i64 0, i64 %119
  %121 = load i8, i8* %120, align 1
  %122 = load i32, i32* %2, align 4
  %123 = sext i32 %122 to i64
  %124 = getelementptr inbounds [100 x i8], [100 x i8]* %7, i64 0, i64 %123
  store i8 %121, i8* %124, align 1
  %125 = load i32, i32* %5, align 4
  %126 = trunc i32 %125 to i8
  %127 = load i32, i32* %2, align 4
  %128 = add nsw i32 %127, 1
  %129 = sext i32 %128 to i64
  %130 = getelementptr inbounds [100 x i8], [100 x i8]* %7, i64 0, i64 %129
  store i8 %126, i8* %130, align 1
  br label %131

131:                                              ; preds = %111, %98
  br label %132

132:                                              ; preds = %131
  %133 = load i32, i32* %2, align 4
  %134 = add nsw i32 %133, 1
  store i32 %134, i32* %2, align 4
  br label %88

135:                                              ; preds = %88
  br label %136

136:                                              ; preds = %135
  %137 = load i32, i32* %1, align 4
  %138 = add nsw i32 %137, 1
  store i32 %138, i32* %1, align 4
  br label %80

139:                                              ; preds = %80
  store i32 0, i32* %1, align 4
  br label %140

140:                                              ; preds = %162, %139
  %141 = load i32, i32* %1, align 4
  %142 = sext i32 %141 to i64
  %143 = getelementptr inbounds [100 x i8], [100 x i8]* %6, i64 0, i64 0
  %144 = call i64 @strlen(i8* %143) #3
  %145 = icmp ult i64 %142, %144
  br i1 %145, label %146, label %165

146:                                              ; preds = %140
  %147 = load i32, i32* %1, align 4
  %148 = sext i32 %147 to i64
  %149 = getelementptr inbounds [100 x i8], [100 x i8]* %6, i64 0, i64 %148
  %150 = load i8, i8* %149, align 1
  %151 = sext i8 %150 to i32
  %152 = load i32, i32* %1, align 4
  %153 = sext i32 %152 to i64
  %154 = getelementptr inbounds [100 x i8], [100 x i8]* %7, i64 0, i64 %153
  %155 = load i8, i8* %154, align 1
  %156 = sext i8 %155 to i32
  %157 = icmp eq i32 %151, %156
  br i1 %157, label %158, label %161

158:                                              ; preds = %146
  %159 = load i32, i32* %3, align 4
  %160 = add nsw i32 %159, 1
  store i32 %160, i32* %3, align 4
  br label %161

161:                                              ; preds = %158, %146
  br label %162

162:                                              ; preds = %161
  %163 = load i32, i32* %1, align 4
  %164 = add nsw i32 %163, 1
  store i32 %164, i32* %1, align 4
  br label %140

165:                                              ; preds = %140
  %166 = load i32, i32* %3, align 4
  %167 = sext i32 %166 to i64
  %168 = getelementptr inbounds [100 x i8], [100 x i8]* %6, i64 0, i64 0
  %169 = call i64 @strlen(i8* %168) #3
  %170 = icmp eq i64 %167, %169
  br i1 %170, label %171, label %173

171:                                              ; preds = %165
  %172 = call i32 (i8*, ...) @printf(i8* getelementptr inbounds ([4 x i8], [4 x i8]* @.str.2, i64 0, i64 0))
  br label %175

173:                                              ; preds = %165
  %174 = call i32 (i8*, ...) @printf(i8* getelementptr inbounds ([3 x i8], [3 x i8]* @.str.1, i64 0, i64 0))
  br label %175

175:                                              ; preds = %173, %171
  br label %176

176:                                              ; preds = %175, %17
  ret void
}

declare dso_local i32 @__isoc99_scanf(i8*, ...) #1

; Function Attrs: nounwind readonly
declare dso_local i64 @strlen(i8*) #2

declare dso_local i32 @printf(i8*, ...) #1


!llvm.module.flags = !{!0}
!llvm.ident = !{!1}

!0 = !{i32 1, !"wchar_size", i32 4}
!1 = !{!"clang version 10.0.0-4ubuntu1 "}
